target datalayout = "e-m:e-p270:32:32-p271:32:32-p272:64:64-i64:64-i128:128-f80:128-n8:16:32:64-S128"
target triple = "x86_64-pc-linux-gnu"

%struct._object = type { %union.anon, ptr }
%union.anon = type { i64 }
%struct.PyCellObject = type { %struct._object, ptr }

; Function Attrs: nounwind uwtable
define internal i32 @cell_traverse(ptr noundef %0, ptr noundef %1, ptr noundef %2) #0 {
  %4 = alloca i32, align 4
  %5 = alloca ptr, align 8
  %6 = alloca ptr, align 8
  %7 = alloca ptr, align 8
  %8 = alloca ptr, align 8
  %9 = alloca i32, align 4
  %10 = alloca i32, align 4
  store ptr %0, ptr %5, align 8, !tbaa !4
  store ptr %1, ptr %6, align 8, !tbaa !9
  store ptr %2, ptr %7, align 8, !tbaa !9
  call void @llvm.lifetime.start.p0(i64 8, ptr %8) #6
  %11 = load ptr, ptr %5, align 8, !tbaa !4
  store ptr %11, ptr %8, align 8, !tbaa !9
  br label %12

12:                                               ; preds = %3
  %13 = load ptr, ptr %8, align 8, !tbaa !9
  %14 = getelementptr inbounds nuw %struct.PyCellObject, ptr %13, i32 0, i32 1
  %15 = load ptr, ptr %14, align 8, !tbaa !10
  %16 = icmp ne ptr %15, null
  br i1 %16, label %17, label %32

17:                                               ; preds = %12
  call void @llvm.lifetime.start.p0(i64 4, ptr %9) #6
  %18 = load ptr, ptr %6, align 8, !tbaa !9
  %19 = load ptr, ptr %8, align 8, !tbaa !9
  %20 = getelementptr inbounds nuw %struct.PyCellObject, ptr %19, i32 0, i32 1
  %21 = load ptr, ptr %20, align 8, !tbaa !10
  %22 = load ptr, ptr %7, align 8, !tbaa !9
  %23 = call i32 %18(ptr noundef %21, ptr noundef %22)
  store i32 %23, ptr %9, align 4, !tbaa !107
  %24 = load i32, ptr %9, align 4, !tbaa !107
  %25 = icmp ne i32 %24, 0
  br i1 %25, label %26, label %28

26:                                               ; preds = %17
  %27 = load i32, ptr %9, align 4, !tbaa !107
  store i32 %27, ptr %4, align 4
  store i32 1, ptr %10, align 4
  br label %29

28:                                               ; preds = %17
  store i32 0, ptr %10, align 4
  br label %29

29:                                               ; preds = %28, %26
  call void @llvm.lifetime.end.p0(i64 4, ptr %9) #6
  %30 = load i32, ptr %10, align 4
  switch i32 %30, label %35 [
    i32 0, label %31
  ]

31:                                               ; preds = %29
  br label %32

32:                                               ; preds = %31, %12
  br label %33

33:                                               ; preds = %32
  br label %34

34:                                               ; preds = %33
  store i32 0, ptr %4, align 4
  store i32 1, ptr %10, align 4
  br label %35

35:                                               ; preds = %34, %29
  call void @llvm.lifetime.end.p0(i64 8, ptr %8) #6
  %36 = load i32, ptr %4, align 4
  ret i32 %36
}